; Listing generated by Microsoft (R) Optimizing Compiler Version 17.00.50727.1 

	TITLE	C:\Users\Mattia\Desktop\Audio plugin developement\esempi\CompzocchioGui 2.10\zlib\gzclose.c
	.686P
	.XMM
	include listing.inc
	.model	flat

INCLUDELIB LIBCMT
INCLUDELIB OLDNAMES

PUBLIC	_gzclose
EXTRN	_gzclose_r:PROC
EXTRN	_gzclose_w:PROC
; Function compile flags: /Ogtp
; File c:\users\mattia\desktop\audio plugin developement\esempi\compzocchiogui 2.10\zlib\gzclose.c
;	COMDAT _gzclose
_TEXT	SEGMENT
_file$ = 8						; size = 4
_gzclose PROC						; COMDAT

; 13   : {

  00000	55		 push	 ebp
  00001	8b ec		 mov	 ebp, esp

; 14   : #ifndef NO_GZCOMPRESS
; 15   :     gz_statep state;
; 16   : 
; 17   :     if (file == NULL)

  00003	8b 45 08	 mov	 eax, DWORD PTR _file$[ebp]
  00006	85 c0		 test	 eax, eax
  00008	75 07		 jne	 SHORT $LN1@gzclose

; 18   :         return Z_STREAM_ERROR;

  0000a	b8 fe ff ff ff	 mov	 eax, -2			; fffffffeH

; 22   : #else
; 23   :     return gzclose_r(file);
; 24   : #endif
; 25   : }

  0000f	5d		 pop	 ebp
  00010	c3		 ret	 0
$LN1@gzclose:

; 19   :     state = (gz_statep)file;
; 20   : 
; 21   :     return state->mode == GZ_READ ? gzclose_r(file) : gzclose_w(file);

  00011	81 38 4f 1c 00
	00		 cmp	 DWORD PTR [eax], 7247	; 00001c4fH
  00017	75 09		 jne	 SHORT $LN4@gzclose
  00019	89 45 08	 mov	 DWORD PTR _file$[ebp], eax

; 22   : #else
; 23   :     return gzclose_r(file);
; 24   : #endif
; 25   : }

  0001c	5d		 pop	 ebp

; 19   :     state = (gz_statep)file;
; 20   : 
; 21   :     return state->mode == GZ_READ ? gzclose_r(file) : gzclose_w(file);

  0001d	e9 00 00 00 00	 jmp	 _gzclose_r
$LN4@gzclose:
  00022	89 45 08	 mov	 DWORD PTR _file$[ebp], eax

; 22   : #else
; 23   :     return gzclose_r(file);
; 24   : #endif
; 25   : }

  00025	5d		 pop	 ebp

; 19   :     state = (gz_statep)file;
; 20   : 
; 21   :     return state->mode == GZ_READ ? gzclose_r(file) : gzclose_w(file);

  00026	e9 00 00 00 00	 jmp	 _gzclose_w
_gzclose ENDP
_TEXT	ENDS
END
