; Listing generated by Microsoft (R) Optimizing Compiler Version 17.00.50727.1 

	TITLE	C:\Users\Mattia\Desktop\Audio plugin developement\esempi\CompzocchioGui 2.10\zlib\contrib\minizip\ioapi.c
	.686P
	.XMM
	include listing.inc
	.model	flat

INCLUDELIB LIBCMT
INCLUDELIB OLDNAMES

PUBLIC	_fill_fopen64_filefunc
PUBLIC	_fill_fopen_filefunc
PUBLIC	_call_zopen64
PUBLIC	_call_zseek64
PUBLIC	_call_ztell64
PUBLIC	_fill_zlib_filefunc64_32_def_from_filefunc32
PUBLIC	??_C@_02JDPG@rb?$AA@				; `string'
PUBLIC	??_C@_03HMFOOINA@r?$CLb?$AA@			; `string'
PUBLIC	??_C@_02GMLFBBN@wb?$AA@				; `string'
EXTRN	_fclose:PROC
EXTRN	_ferror:PROC
EXTRN	_fopen:PROC
EXTRN	_fread:PROC
EXTRN	_fseek:PROC
EXTRN	_ftell:PROC
EXTRN	__fseeki64:PROC
EXTRN	__ftelli64:PROC
EXTRN	_fwrite:PROC
;	COMDAT ??_C@_02GMLFBBN@wb?$AA@
CONST	SEGMENT
??_C@_02GMLFBBN@wb?$AA@ DB 'wb', 00H			; `string'
CONST	ENDS
;	COMDAT ??_C@_03HMFOOINA@r?$CLb?$AA@
CONST	SEGMENT
??_C@_03HMFOOINA@r?$CLb?$AA@ DB 'r+b', 00H		; `string'
CONST	ENDS
;	COMDAT ??_C@_02JDPG@rb?$AA@
CONST	SEGMENT
??_C@_02JDPG@rb?$AA@ DB 'rb', 00H			; `string'
CONST	ENDS
; Function compile flags: /Ogtp
; File c:\users\mattia\desktop\audio plugin developement\esempi\compzocchiogui 2.10\zlib\contrib\minizip\ioapi.c
;	COMDAT _fseek_file_func
_TEXT	SEGMENT
_opaque$ = 8						; size = 4
_stream$ = 12						; size = 4
_offset$ = 16						; size = 4
_origin$ = 20						; size = 4
_fseek_file_func PROC					; COMDAT

; 150  : {

  00000	55		 push	 ebp
  00001	8b ec		 mov	 ebp, esp

; 151  :     int fseek_origin=0;
; 152  :     long ret;
; 153  :     switch (origin)

  00003	8b 45 14	 mov	 eax, DWORD PTR _origin$[ebp]
  00006	83 e8 00	 sub	 eax, 0
  00009	74 19		 je	 SHORT $LN3@fseek_file
  0000b	48		 dec	 eax
  0000c	74 0f		 je	 SHORT $LN5@fseek_file
  0000e	48		 dec	 eax
  0000f	74 05		 je	 SHORT $LN4@fseek_file

; 163  :         break;
; 164  :     default: return -1;

  00011	83 c8 ff	 or	 eax, -1

; 170  : }

  00014	5d		 pop	 ebp
  00015	c3		 ret	 0
$LN4@fseek_file:

; 158  :     case ZLIB_FILEFUNC_SEEK_END :
; 159  :         fseek_origin = SEEK_END;

  00016	b8 02 00 00 00	 mov	 eax, 2

; 160  :         break;

  0001b	eb 09		 jmp	 SHORT $LN6@fseek_file
$LN5@fseek_file:

; 154  :     {
; 155  :     case ZLIB_FILEFUNC_SEEK_CUR :
; 156  :         fseek_origin = SEEK_CUR;

  0001d	b8 01 00 00 00	 mov	 eax, 1

; 157  :         break;

  00022	eb 02		 jmp	 SHORT $LN6@fseek_file
$LN3@fseek_file:

; 161  :     case ZLIB_FILEFUNC_SEEK_SET :
; 162  :         fseek_origin = SEEK_SET;

  00024	33 c0		 xor	 eax, eax
$LN6@fseek_file:
  00026	56		 push	 esi

; 165  :     }
; 166  :     ret = 0;
; 167  :     if (fseek((FILE *)stream, offset, fseek_origin) != 0)

  00027	50		 push	 eax
  00028	ff 75 10	 push	 DWORD PTR _offset$[ebp]
  0002b	33 f6		 xor	 esi, esi
  0002d	ff 75 0c	 push	 DWORD PTR _stream$[ebp]
  00030	e8 00 00 00 00	 call	 _fseek
  00035	83 c4 0c	 add	 esp, 12			; 0000000cH
  00038	83 c9 ff	 or	 ecx, -1
  0003b	85 c0		 test	 eax, eax
  0003d	0f 45 f1	 cmovne	 esi, ecx

; 168  :         ret = -1;
; 169  :     return ret;

  00040	8b c6		 mov	 eax, esi
  00042	5e		 pop	 esi

; 170  : }

  00043	5d		 pop	 ebp
  00044	c3		 ret	 0
_fseek_file_func ENDP
_TEXT	ENDS
; Function compile flags: /Ogtp
; File c:\users\mattia\desktop\audio plugin developement\esempi\compzocchiogui 2.10\zlib\contrib\minizip\ioapi.c
;	COMDAT _ftell_file_func
_TEXT	SEGMENT
_opaque$ = 8						; size = 4
_stream$ = 12						; size = 4
_ftell_file_func PROC					; COMDAT

; 135  : {

  00000	55		 push	 ebp
  00001	8b ec		 mov	 ebp, esp

; 136  :     long ret;
; 137  :     ret = ftell((FILE *)stream);

  00003	ff 75 0c	 push	 DWORD PTR _stream$[ebp]
  00006	e8 00 00 00 00	 call	 _ftell
  0000b	83 c4 04	 add	 esp, 4

; 138  :     return ret;
; 139  : }

  0000e	5d		 pop	 ebp
  0000f	c3		 ret	 0
_ftell_file_func ENDP
_TEXT	ENDS
; Function compile flags: /Ogtp
; File c:\users\mattia\desktop\audio plugin developement\esempi\compzocchiogui 2.10\zlib\contrib\minizip\ioapi.c
;	COMDAT _fopen64_file_func
_TEXT	SEGMENT
_opaque$ = 8						; size = 4
_filename$ = 12						; size = 4
_mode$ = 16						; size = 4
_fopen64_file_func PROC					; COMDAT

; 102  : {

  00000	55		 push	 ebp
  00001	8b ec		 mov	 ebp, esp

; 103  :     FILE* file = NULL;
; 104  :     const char* mode_fopen = NULL;
; 105  :     if ((mode & ZLIB_FILEFUNC_MODE_READWRITEFILTER)==ZLIB_FILEFUNC_MODE_READ)

  00003	8b 4d 10	 mov	 ecx, DWORD PTR _mode$[ebp]
  00006	8b c1		 mov	 eax, ecx
  00008	24 03		 and	 al, 3
  0000a	33 d2		 xor	 edx, edx
  0000c	3c 01		 cmp	 al, 1
  0000e	75 07		 jne	 SHORT $LN6@fopen64_fi

; 106  :         mode_fopen = "rb";

  00010	b8 00 00 00 00	 mov	 eax, OFFSET ??_C@_02JDPG@rb?$AA@

; 107  :     else

  00015	eb 17		 jmp	 SHORT $LN2@fopen64_fi
$LN6@fopen64_fi:

; 108  :     if (mode & ZLIB_FILEFUNC_MODE_EXISTING)

  00017	f6 c1 04	 test	 cl, 4
  0001a	74 07		 je	 SHORT $LN4@fopen64_fi

; 109  :         mode_fopen = "r+b";

  0001c	b8 00 00 00 00	 mov	 eax, OFFSET ??_C@_03HMFOOINA@r?$CLb?$AA@

; 110  :     else

  00021	eb 0b		 jmp	 SHORT $LN2@fopen64_fi
$LN4@fopen64_fi:

; 111  :     if (mode & ZLIB_FILEFUNC_MODE_CREATE)

  00023	f6 c1 08	 test	 cl, 8
  00026	b8 00 00 00 00	 mov	 eax, OFFSET ??_C@_02GMLFBBN@wb?$AA@
  0002b	0f 44 c2	 cmove	 eax, edx
$LN2@fopen64_fi:

; 112  :         mode_fopen = "wb";
; 113  : 
; 114  :     if ((filename!=NULL) && (mode_fopen != NULL))

  0002e	8b 4d 0c	 mov	 ecx, DWORD PTR _filename$[ebp]
  00031	85 c9		 test	 ecx, ecx
  00033	74 10		 je	 SHORT $LN9@fopen64_fi
  00035	85 c0		 test	 eax, eax
  00037	74 0c		 je	 SHORT $LN9@fopen64_fi

; 115  :         file = fopen64((const char*)filename, mode_fopen);

  00039	50		 push	 eax
  0003a	51		 push	 ecx
  0003b	e8 00 00 00 00	 call	 _fopen
  00040	83 c4 08	 add	 esp, 8

; 117  : }

  00043	5d		 pop	 ebp
  00044	c3		 ret	 0
$LN9@fopen64_fi:

; 116  :     return file;

  00045	33 c0		 xor	 eax, eax

; 117  : }

  00047	5d		 pop	 ebp
  00048	c3		 ret	 0
_fopen64_file_func ENDP
_TEXT	ENDS
; Function compile flags: /Ogtp
; File c:\users\mattia\desktop\audio plugin developement\esempi\compzocchiogui 2.10\zlib\contrib\minizip\ioapi.c
;	COMDAT _ferror_file_func
_TEXT	SEGMENT
_opaque$ = 8						; size = 4
_stream$ = 12						; size = 4
_ferror_file_func PROC					; COMDAT

; 206  : {

  00000	55		 push	 ebp
  00001	8b ec		 mov	 ebp, esp

; 207  :     int ret;
; 208  :     ret = ferror((FILE *)stream);

  00003	ff 75 0c	 push	 DWORD PTR _stream$[ebp]
  00006	e8 00 00 00 00	 call	 _ferror
  0000b	83 c4 04	 add	 esp, 4

; 209  :     return ret;
; 210  : }

  0000e	5d		 pop	 ebp
  0000f	c3		 ret	 0
_ferror_file_func ENDP
_TEXT	ENDS
; Function compile flags: /Ogtp
; File c:\users\mattia\desktop\audio plugin developement\esempi\compzocchiogui 2.10\zlib\contrib\minizip\ioapi.c
;	COMDAT _fclose_file_func
_TEXT	SEGMENT
_opaque$ = 8						; size = 4
_stream$ = 12						; size = 4
_fclose_file_func PROC					; COMDAT

; 199  : {

  00000	55		 push	 ebp
  00001	8b ec		 mov	 ebp, esp

; 200  :     int ret;
; 201  :     ret = fclose((FILE *)stream);

  00003	ff 75 0c	 push	 DWORD PTR _stream$[ebp]
  00006	e8 00 00 00 00	 call	 _fclose
  0000b	83 c4 04	 add	 esp, 4

; 202  :     return ret;
; 203  : }

  0000e	5d		 pop	 ebp
  0000f	c3		 ret	 0
_fclose_file_func ENDP
_TEXT	ENDS
; Function compile flags: /Ogtp
; File c:\users\mattia\desktop\audio plugin developement\esempi\compzocchiogui 2.10\zlib\contrib\minizip\ioapi.c
;	COMDAT _fseek64_file_func
_TEXT	SEGMENT
_opaque$ = 8						; size = 4
_stream$ = 12						; size = 4
_offset$ = 16						; size = 8
_origin$ = 24						; size = 4
_fseek64_file_func PROC					; COMDAT

; 173  : {

  00000	55		 push	 ebp
  00001	8b ec		 mov	 ebp, esp

; 174  :     int fseek_origin=0;
; 175  :     long ret;
; 176  :     switch (origin)

  00003	8b 45 18	 mov	 eax, DWORD PTR _origin$[ebp]
  00006	83 e8 00	 sub	 eax, 0
  00009	74 19		 je	 SHORT $LN3@fseek64_fi
  0000b	48		 dec	 eax
  0000c	74 0f		 je	 SHORT $LN5@fseek64_fi
  0000e	48		 dec	 eax
  0000f	74 05		 je	 SHORT $LN4@fseek64_fi

; 186  :         break;
; 187  :     default: return -1;

  00011	83 c8 ff	 or	 eax, -1

; 195  : }

  00014	5d		 pop	 ebp
  00015	c3		 ret	 0
$LN4@fseek64_fi:

; 181  :     case ZLIB_FILEFUNC_SEEK_END :
; 182  :         fseek_origin = SEEK_END;

  00016	b8 02 00 00 00	 mov	 eax, 2

; 183  :         break;

  0001b	eb 09		 jmp	 SHORT $LN6@fseek64_fi
$LN5@fseek64_fi:

; 177  :     {
; 178  :     case ZLIB_FILEFUNC_SEEK_CUR :
; 179  :         fseek_origin = SEEK_CUR;

  0001d	b8 01 00 00 00	 mov	 eax, 1

; 180  :         break;

  00022	eb 02		 jmp	 SHORT $LN6@fseek64_fi
$LN3@fseek64_fi:

; 184  :     case ZLIB_FILEFUNC_SEEK_SET :
; 185  :         fseek_origin = SEEK_SET;

  00024	33 c0		 xor	 eax, eax
$LN6@fseek64_fi:
  00026	56		 push	 esi

; 188  :     }
; 189  :     ret = 0;
; 190  : 
; 191  :     if(fseeko64((FILE *)stream, offset, fseek_origin) != 0)

  00027	50		 push	 eax
  00028	ff 75 14	 push	 DWORD PTR _offset$[ebp+4]
  0002b	33 f6		 xor	 esi, esi
  0002d	ff 75 10	 push	 DWORD PTR _offset$[ebp]
  00030	ff 75 0c	 push	 DWORD PTR _stream$[ebp]
  00033	e8 00 00 00 00	 call	 __fseeki64
  00038	83 c4 10	 add	 esp, 16			; 00000010H
  0003b	83 c9 ff	 or	 ecx, -1
  0003e	85 c0		 test	 eax, eax
  00040	0f 45 f1	 cmovne	 esi, ecx

; 192  :                         ret = -1;
; 193  : 
; 194  :     return ret;

  00043	8b c6		 mov	 eax, esi
  00045	5e		 pop	 esi

; 195  : }

  00046	5d		 pop	 ebp
  00047	c3		 ret	 0
_fseek64_file_func ENDP
_TEXT	ENDS
; Function compile flags: /Ogtp
; File c:\users\mattia\desktop\audio plugin developement\esempi\compzocchiogui 2.10\zlib\contrib\minizip\ioapi.c
;	COMDAT _ftell64_file_func
_TEXT	SEGMENT
_opaque$ = 8						; size = 4
_stream$ = 12						; size = 4
_ftell64_file_func PROC					; COMDAT

; 143  : {

  00000	55		 push	 ebp
  00001	8b ec		 mov	 ebp, esp

; 144  :     ZPOS64_T ret;
; 145  :     ret = ftello64((FILE *)stream);

  00003	ff 75 0c	 push	 DWORD PTR _stream$[ebp]
  00006	e8 00 00 00 00	 call	 __ftelli64
  0000b	83 c4 04	 add	 esp, 4

; 146  :     return ret;
; 147  : }

  0000e	5d		 pop	 ebp
  0000f	c3		 ret	 0
_ftell64_file_func ENDP
_TEXT	ENDS
; Function compile flags: /Ogtp
; File c:\users\mattia\desktop\audio plugin developement\esempi\compzocchiogui 2.10\zlib\contrib\minizip\ioapi.c
;	COMDAT _fwrite_file_func
_TEXT	SEGMENT
_opaque$ = 8						; size = 4
_stream$ = 12						; size = 4
_buf$ = 16						; size = 4
_size$ = 20						; size = 4
_fwrite_file_func PROC					; COMDAT

; 128  : {

  00000	55		 push	 ebp
  00001	8b ec		 mov	 ebp, esp

; 129  :     uLong ret;
; 130  :     ret = (uLong)fwrite(buf, 1, (size_t)size, (FILE *)stream);

  00003	ff 75 0c	 push	 DWORD PTR _stream$[ebp]
  00006	ff 75 14	 push	 DWORD PTR _size$[ebp]
  00009	6a 01		 push	 1
  0000b	ff 75 10	 push	 DWORD PTR _buf$[ebp]
  0000e	e8 00 00 00 00	 call	 _fwrite
  00013	83 c4 10	 add	 esp, 16			; 00000010H

; 131  :     return ret;
; 132  : }

  00016	5d		 pop	 ebp
  00017	c3		 ret	 0
_fwrite_file_func ENDP
_TEXT	ENDS
; Function compile flags: /Ogtp
; File c:\users\mattia\desktop\audio plugin developement\esempi\compzocchiogui 2.10\zlib\contrib\minizip\ioapi.c
;	COMDAT _fread_file_func
_TEXT	SEGMENT
_opaque$ = 8						; size = 4
_stream$ = 12						; size = 4
_buf$ = 16						; size = 4
_size$ = 20						; size = 4
_fread_file_func PROC					; COMDAT

; 121  : {

  00000	55		 push	 ebp
  00001	8b ec		 mov	 ebp, esp

; 122  :     uLong ret;
; 123  :     ret = (uLong)fread(buf, 1, (size_t)size, (FILE *)stream);

  00003	ff 75 0c	 push	 DWORD PTR _stream$[ebp]
  00006	ff 75 14	 push	 DWORD PTR _size$[ebp]
  00009	6a 01		 push	 1
  0000b	ff 75 10	 push	 DWORD PTR _buf$[ebp]
  0000e	e8 00 00 00 00	 call	 _fread
  00013	83 c4 10	 add	 esp, 16			; 00000010H

; 124  :     return ret;
; 125  : }

  00016	5d		 pop	 ebp
  00017	c3		 ret	 0
_fread_file_func ENDP
_TEXT	ENDS
; Function compile flags: /Ogtp
; File c:\users\mattia\desktop\audio plugin developement\esempi\compzocchiogui 2.10\zlib\contrib\minizip\ioapi.c
;	COMDAT _fopen_file_func
_TEXT	SEGMENT
_opaque$ = 8						; size = 4
_filename$ = 12						; size = 4
_mode$ = 16						; size = 4
_fopen_file_func PROC					; COMDAT

; 84   : {

  00000	55		 push	 ebp
  00001	8b ec		 mov	 ebp, esp

; 85   :     FILE* file = NULL;
; 86   :     const char* mode_fopen = NULL;
; 87   :     if ((mode & ZLIB_FILEFUNC_MODE_READWRITEFILTER)==ZLIB_FILEFUNC_MODE_READ)

  00003	8b 4d 10	 mov	 ecx, DWORD PTR _mode$[ebp]
  00006	8b c1		 mov	 eax, ecx
  00008	24 03		 and	 al, 3
  0000a	33 d2		 xor	 edx, edx
  0000c	3c 01		 cmp	 al, 1
  0000e	75 07		 jne	 SHORT $LN6@fopen_file

; 88   :         mode_fopen = "rb";

  00010	b8 00 00 00 00	 mov	 eax, OFFSET ??_C@_02JDPG@rb?$AA@

; 89   :     else

  00015	eb 17		 jmp	 SHORT $LN2@fopen_file
$LN6@fopen_file:

; 90   :     if (mode & ZLIB_FILEFUNC_MODE_EXISTING)

  00017	f6 c1 04	 test	 cl, 4
  0001a	74 07		 je	 SHORT $LN4@fopen_file

; 91   :         mode_fopen = "r+b";

  0001c	b8 00 00 00 00	 mov	 eax, OFFSET ??_C@_03HMFOOINA@r?$CLb?$AA@

; 92   :     else

  00021	eb 0b		 jmp	 SHORT $LN2@fopen_file
$LN4@fopen_file:

; 93   :     if (mode & ZLIB_FILEFUNC_MODE_CREATE)

  00023	f6 c1 08	 test	 cl, 8
  00026	b8 00 00 00 00	 mov	 eax, OFFSET ??_C@_02GMLFBBN@wb?$AA@
  0002b	0f 44 c2	 cmove	 eax, edx
$LN2@fopen_file:

; 94   :         mode_fopen = "wb";
; 95   : 
; 96   :     if ((filename!=NULL) && (mode_fopen != NULL))

  0002e	8b 4d 0c	 mov	 ecx, DWORD PTR _filename$[ebp]
  00031	85 c9		 test	 ecx, ecx
  00033	74 10		 je	 SHORT $LN9@fopen_file
  00035	85 c0		 test	 eax, eax
  00037	74 0c		 je	 SHORT $LN9@fopen_file

; 97   :         file = fopen(filename, mode_fopen);

  00039	50		 push	 eax
  0003a	51		 push	 ecx
  0003b	e8 00 00 00 00	 call	 _fopen
  00040	83 c4 08	 add	 esp, 8

; 99   : }

  00043	5d		 pop	 ebp
  00044	c3		 ret	 0
$LN9@fopen_file:

; 98   :     return file;

  00045	33 c0		 xor	 eax, eax

; 99   : }

  00047	5d		 pop	 ebp
  00048	c3		 ret	 0
_fopen_file_func ENDP
_TEXT	ENDS
; Function compile flags: /Ogtp
; File c:\users\mattia\desktop\audio plugin developement\esempi\compzocchiogui 2.10\zlib\contrib\minizip\ioapi.c
;	COMDAT _fill_zlib_filefunc64_32_def_from_filefunc32
_TEXT	SEGMENT
_p_filefunc64_32$ = 8					; size = 4
_p_filefunc32$ = 12					; size = 4
_fill_zlib_filefunc64_32_def_from_filefunc32 PROC	; COMDAT

; 58   : {

  00000	55		 push	 ebp
  00001	8b ec		 mov	 ebp, esp

; 59   :     p_filefunc64_32->zfile_func64.zopen64_file = NULL;

  00003	8b 55 08	 mov	 edx, DWORD PTR _p_filefunc64_32$[ebp]

; 60   :     p_filefunc64_32->zopen32_file = p_filefunc32->zopen_file;

  00006	8b 4d 0c	 mov	 ecx, DWORD PTR _p_filefunc32$[ebp]
  00009	c7 02 00 00 00
	00		 mov	 DWORD PTR [edx], 0
  0000f	8b 01		 mov	 eax, DWORD PTR [ecx]
  00011	89 42 20	 mov	 DWORD PTR [edx+32], eax

; 61   :     p_filefunc64_32->zfile_func64.zerror_file = p_filefunc32->zerror_file;

  00014	8b 41 18	 mov	 eax, DWORD PTR [ecx+24]
  00017	89 42 18	 mov	 DWORD PTR [edx+24], eax

; 62   :     p_filefunc64_32->zfile_func64.zread_file = p_filefunc32->zread_file;

  0001a	8b 41 04	 mov	 eax, DWORD PTR [ecx+4]
  0001d	89 42 04	 mov	 DWORD PTR [edx+4], eax

; 63   :     p_filefunc64_32->zfile_func64.zwrite_file = p_filefunc32->zwrite_file;

  00020	8b 41 08	 mov	 eax, DWORD PTR [ecx+8]
  00023	89 42 08	 mov	 DWORD PTR [edx+8], eax

; 64   :     p_filefunc64_32->zfile_func64.ztell64_file = NULL;

  00026	c7 42 0c 00 00
	00 00		 mov	 DWORD PTR [edx+12], 0

; 65   :     p_filefunc64_32->zfile_func64.zseek64_file = NULL;

  0002d	c7 42 10 00 00
	00 00		 mov	 DWORD PTR [edx+16], 0

; 66   :     p_filefunc64_32->zfile_func64.zclose_file = p_filefunc32->zclose_file;

  00034	8b 41 14	 mov	 eax, DWORD PTR [ecx+20]
  00037	89 42 14	 mov	 DWORD PTR [edx+20], eax

; 67   :     p_filefunc64_32->zfile_func64.zerror_file = p_filefunc32->zerror_file;

  0003a	8b 41 18	 mov	 eax, DWORD PTR [ecx+24]
  0003d	89 42 18	 mov	 DWORD PTR [edx+24], eax

; 68   :     p_filefunc64_32->zfile_func64.opaque = p_filefunc32->opaque;

  00040	8b 41 1c	 mov	 eax, DWORD PTR [ecx+28]
  00043	89 42 1c	 mov	 DWORD PTR [edx+28], eax

; 69   :     p_filefunc64_32->zseek32_file = p_filefunc32->zseek_file;

  00046	8b 41 10	 mov	 eax, DWORD PTR [ecx+16]
  00049	89 42 28	 mov	 DWORD PTR [edx+40], eax

; 70   :     p_filefunc64_32->ztell32_file = p_filefunc32->ztell_file;

  0004c	8b 41 0c	 mov	 eax, DWORD PTR [ecx+12]
  0004f	89 42 24	 mov	 DWORD PTR [edx+36], eax

; 71   : }

  00052	5d		 pop	 ebp
  00053	c3		 ret	 0
_fill_zlib_filefunc64_32_def_from_filefunc32 ENDP
_TEXT	ENDS
; Function compile flags: /Ogtp
; File c:\users\mattia\desktop\audio plugin developement\esempi\compzocchiogui 2.10\zlib\contrib\minizip\ioapi.c
;	COMDAT _call_ztell64
_TEXT	SEGMENT
_pfilefunc$ = 8						; size = 4
_filestream$ = 12					; size = 4
_call_ztell64 PROC					; COMDAT

; 44   : {

  00000	55		 push	 ebp
  00001	8b ec		 mov	 ebp, esp

; 45   :     if (pfilefunc->zfile_func64.zseek64_file != NULL)

  00003	8b 45 08	 mov	 eax, DWORD PTR _pfilefunc$[ebp]

; 46   :         return (*(pfilefunc->zfile_func64.ztell64_file)) (pfilefunc->zfile_func64.opaque,filestream);

  00006	ff 75 0c	 push	 DWORD PTR _filestream$[ebp]
  00009	83 78 10 00	 cmp	 DWORD PTR [eax+16], 0
  0000d	ff 70 1c	 push	 DWORD PTR [eax+28]
  00010	74 0a		 je	 SHORT $LN4@call_ztell
  00012	8b 40 0c	 mov	 eax, DWORD PTR [eax+12]
  00015	ff d0		 call	 eax
  00017	83 c4 08	 add	 esp, 8

; 54   :     }
; 55   : }

  0001a	5d		 pop	 ebp
  0001b	c3		 ret	 0
$LN4@call_ztell:

; 47   :     else
; 48   :     {
; 49   :         uLong tell_uLong = (*(pfilefunc->ztell32_file))(pfilefunc->zfile_func64.opaque,filestream);

  0001c	8b 40 24	 mov	 eax, DWORD PTR [eax+36]
  0001f	ff d0		 call	 eax
  00021	83 c4 08	 add	 esp, 8

; 50   :         if ((tell_uLong) == ((uLong)-1))

  00024	83 f8 ff	 cmp	 eax, -1
  00027	75 07		 jne	 SHORT $LN2@call_ztell

; 51   :             return (ZPOS64_T)-1;

  00029	0b c0		 or	 eax, eax
  0002b	83 ca ff	 or	 edx, -1

; 54   :     }
; 55   : }

  0002e	5d		 pop	 ebp
  0002f	c3		 ret	 0
$LN2@call_ztell:

; 52   :         else
; 53   :             return tell_uLong;

  00030	33 d2		 xor	 edx, edx

; 54   :     }
; 55   : }

  00032	5d		 pop	 ebp
  00033	c3		 ret	 0
_call_ztell64 ENDP
_TEXT	ENDS
; Function compile flags: /Ogtp
; File c:\users\mattia\desktop\audio plugin developement\esempi\compzocchiogui 2.10\zlib\contrib\minizip\ioapi.c
;	COMDAT _call_zseek64
_TEXT	SEGMENT
_pfilefunc$ = 8						; size = 4
_filestream$ = 12					; size = 4
_offset$ = 16						; size = 8
_origin$ = 24						; size = 4
_call_zseek64 PROC					; COMDAT

; 30   : {

  00000	55		 push	 ebp
  00001	8b ec		 mov	 ebp, esp

; 31   :     if (pfilefunc->zfile_func64.zseek64_file != NULL)

  00003	8b 45 08	 mov	 eax, DWORD PTR _pfilefunc$[ebp]
  00006	8b 48 10	 mov	 ecx, DWORD PTR [eax+16]
  00009	85 c9		 test	 ecx, ecx
  0000b	74 16		 je	 SHORT $LN4@call_zseek

; 32   :         return (*(pfilefunc->zfile_func64.zseek64_file)) (pfilefunc->zfile_func64.opaque,filestream,offset,origin);

  0000d	ff 75 18	 push	 DWORD PTR _origin$[ebp]
  00010	ff 75 14	 push	 DWORD PTR _offset$[ebp+4]
  00013	ff 75 10	 push	 DWORD PTR _offset$[ebp]
  00016	ff 75 0c	 push	 DWORD PTR _filestream$[ebp]
  00019	ff 70 1c	 push	 DWORD PTR [eax+28]
  0001c	ff d1		 call	 ecx
  0001e	83 c4 14	 add	 esp, 20			; 00000014H

; 40   :     }
; 41   : }

  00021	5d		 pop	 ebp
  00022	c3		 ret	 0
$LN4@call_zseek:

; 33   :     else
; 34   :     {
; 35   :         uLong offsetTruncated = (uLong)offset;
; 36   :         if (offsetTruncated != offset)

  00023	8b 4d 10	 mov	 ecx, DWORD PTR _offset$[ebp]
  00026	33 d2		 xor	 edx, edx
  00028	3b c9		 cmp	 ecx, ecx
  0002a	75 19		 jne	 SHORT $LN7@call_zseek
  0002c	3b 55 14	 cmp	 edx, DWORD PTR _offset$[ebp+4]
  0002f	75 14		 jne	 SHORT $LN7@call_zseek

; 38   :         else
; 39   :             return (*(pfilefunc->zseek32_file))(pfilefunc->zfile_func64.opaque,filestream,offsetTruncated,origin);

  00031	ff 75 18	 push	 DWORD PTR _origin$[ebp]
  00034	51		 push	 ecx
  00035	ff 75 0c	 push	 DWORD PTR _filestream$[ebp]
  00038	ff 70 1c	 push	 DWORD PTR [eax+28]
  0003b	8b 40 28	 mov	 eax, DWORD PTR [eax+40]
  0003e	ff d0		 call	 eax
  00040	83 c4 10	 add	 esp, 16			; 00000010H

; 40   :     }
; 41   : }

  00043	5d		 pop	 ebp
  00044	c3		 ret	 0
$LN7@call_zseek:

; 37   :             return -1;

  00045	83 c8 ff	 or	 eax, -1

; 40   :     }
; 41   : }

  00048	5d		 pop	 ebp
  00049	c3		 ret	 0
_call_zseek64 ENDP
_TEXT	ENDS
; Function compile flags: /Ogtp
; File c:\users\mattia\desktop\audio plugin developement\esempi\compzocchiogui 2.10\zlib\contrib\minizip\ioapi.c
;	COMDAT _call_zopen64
_TEXT	SEGMENT
_pfilefunc$ = 8						; size = 4
_filename$ = 12						; size = 4
_mode$ = 16						; size = 4
_call_zopen64 PROC					; COMDAT

; 20   : {

  00000	55		 push	 ebp
  00001	8b ec		 mov	 ebp, esp

; 21   :     if (pfilefunc->zfile_func64.zopen64_file != NULL)

  00003	8b 45 08	 mov	 eax, DWORD PTR _pfilefunc$[ebp]

; 22   :         return (*(pfilefunc->zfile_func64.zopen64_file)) (pfilefunc->zfile_func64.opaque,filename,mode);

  00006	ff 75 10	 push	 DWORD PTR _mode$[ebp]
  00009	8b 08		 mov	 ecx, DWORD PTR [eax]
  0000b	ff 75 0c	 push	 DWORD PTR _filename$[ebp]
  0000e	ff 70 1c	 push	 DWORD PTR [eax+28]
  00011	85 c9		 test	 ecx, ecx
  00013	74 07		 je	 SHORT $LN2@call_zopen
  00015	ff d1		 call	 ecx

; 23   :     else
; 24   :     {
; 25   :         return (*(pfilefunc->zopen32_file))(pfilefunc->zfile_func64.opaque,(const char*)filename,mode);

  00017	83 c4 0c	 add	 esp, 12			; 0000000cH

; 26   :     }
; 27   : }

  0001a	5d		 pop	 ebp
  0001b	c3		 ret	 0
$LN2@call_zopen:

; 23   :     else
; 24   :     {
; 25   :         return (*(pfilefunc->zopen32_file))(pfilefunc->zfile_func64.opaque,(const char*)filename,mode);

  0001c	8b 40 20	 mov	 eax, DWORD PTR [eax+32]
  0001f	ff d0		 call	 eax
  00021	83 c4 0c	 add	 esp, 12			; 0000000cH

; 26   :     }
; 27   : }

  00024	5d		 pop	 ebp
  00025	c3		 ret	 0
_call_zopen64 ENDP
_TEXT	ENDS
; Function compile flags: /Ogtp
; File c:\users\mattia\desktop\audio plugin developement\esempi\compzocchiogui 2.10\zlib\contrib\minizip\ioapi.c
;	COMDAT _fill_fopen_filefunc
_TEXT	SEGMENT
_pzlib_filefunc_def$ = 8				; size = 4
_fill_fopen_filefunc PROC				; COMDAT

; 214  : {

  00000	55		 push	 ebp
  00001	8b ec		 mov	 ebp, esp

; 215  :     pzlib_filefunc_def->zopen_file = fopen_file_func;

  00003	8b 45 08	 mov	 eax, DWORD PTR _pzlib_filefunc_def$[ebp]
  00006	c7 00 00 00 00
	00		 mov	 DWORD PTR [eax], OFFSET _fopen_file_func

; 216  :     pzlib_filefunc_def->zread_file = fread_file_func;

  0000c	c7 40 04 00 00
	00 00		 mov	 DWORD PTR [eax+4], OFFSET _fread_file_func

; 217  :     pzlib_filefunc_def->zwrite_file = fwrite_file_func;

  00013	c7 40 08 00 00
	00 00		 mov	 DWORD PTR [eax+8], OFFSET _fwrite_file_func

; 218  :     pzlib_filefunc_def->ztell_file = ftell_file_func;

  0001a	c7 40 0c 00 00
	00 00		 mov	 DWORD PTR [eax+12], OFFSET _ftell_file_func

; 219  :     pzlib_filefunc_def->zseek_file = fseek_file_func;

  00021	c7 40 10 00 00
	00 00		 mov	 DWORD PTR [eax+16], OFFSET _fseek_file_func

; 220  :     pzlib_filefunc_def->zclose_file = fclose_file_func;

  00028	c7 40 14 00 00
	00 00		 mov	 DWORD PTR [eax+20], OFFSET _fclose_file_func

; 221  :     pzlib_filefunc_def->zerror_file = ferror_file_func;

  0002f	c7 40 18 00 00
	00 00		 mov	 DWORD PTR [eax+24], OFFSET _ferror_file_func

; 222  :     pzlib_filefunc_def->opaque = NULL;

  00036	c7 40 1c 00 00
	00 00		 mov	 DWORD PTR [eax+28], 0

; 223  : }

  0003d	5d		 pop	 ebp
  0003e	c3		 ret	 0
_fill_fopen_filefunc ENDP
_TEXT	ENDS
; Function compile flags: /Ogtp
; File c:\users\mattia\desktop\audio plugin developement\esempi\compzocchiogui 2.10\zlib\contrib\minizip\ioapi.c
;	COMDAT _fill_fopen64_filefunc
_TEXT	SEGMENT
_pzlib_filefunc_def$ = 8				; size = 4
_fill_fopen64_filefunc PROC				; COMDAT

; 226  : {

  00000	55		 push	 ebp
  00001	8b ec		 mov	 ebp, esp

; 227  :     pzlib_filefunc_def->zopen64_file = fopen64_file_func;

  00003	8b 45 08	 mov	 eax, DWORD PTR _pzlib_filefunc_def$[ebp]
  00006	c7 00 00 00 00
	00		 mov	 DWORD PTR [eax], OFFSET _fopen64_file_func

; 228  :     pzlib_filefunc_def->zread_file = fread_file_func;

  0000c	c7 40 04 00 00
	00 00		 mov	 DWORD PTR [eax+4], OFFSET _fread_file_func

; 229  :     pzlib_filefunc_def->zwrite_file = fwrite_file_func;

  00013	c7 40 08 00 00
	00 00		 mov	 DWORD PTR [eax+8], OFFSET _fwrite_file_func

; 230  :     pzlib_filefunc_def->ztell64_file = ftell64_file_func;

  0001a	c7 40 0c 00 00
	00 00		 mov	 DWORD PTR [eax+12], OFFSET _ftell64_file_func

; 231  :     pzlib_filefunc_def->zseek64_file = fseek64_file_func;

  00021	c7 40 10 00 00
	00 00		 mov	 DWORD PTR [eax+16], OFFSET _fseek64_file_func

; 232  :     pzlib_filefunc_def->zclose_file = fclose_file_func;

  00028	c7 40 14 00 00
	00 00		 mov	 DWORD PTR [eax+20], OFFSET _fclose_file_func

; 233  :     pzlib_filefunc_def->zerror_file = ferror_file_func;

  0002f	c7 40 18 00 00
	00 00		 mov	 DWORD PTR [eax+24], OFFSET _ferror_file_func

; 234  :     pzlib_filefunc_def->opaque = NULL;

  00036	c7 40 1c 00 00
	00 00		 mov	 DWORD PTR [eax+28], 0

; 235  : }

  0003d	5d		 pop	 ebp
  0003e	c3		 ret	 0
_fill_fopen64_filefunc ENDP
_TEXT	ENDS
END
